target datalayout = "e-m:e-p270:32:32-p271:32:32-p272:64:64-i64:64-i128:128-f80:128-n8:16:32:64-S128"
target triple = "x86_64-pc-linux-gnu"

%"class.gmx::SelectionTreeElement" = type { i32, %struct.gmx_ana_selvalue_t, ptr, i32, %union.anon.30, ptr, ptr, %"class.std::shared_ptr", %"class.std::shared_ptr", %"class.std::__cxx11::basic_string", %"struct.gmx::SelectionLocation" }
%struct.gmx_ana_selvalue_t = type { i32, i32, %union.anon.29, i32 }
%union.anon.29 = type { ptr }
%union.anon.30 = type { %struct.anon }
%struct.anon = type { ptr, ptr, ptr, ptr }
%"class.std::shared_ptr" = type { %"class.std::__shared_ptr" }
%"class.std::__shared_ptr" = type { ptr, %"class.std::__shared_count" }
%"class.std::__shared_count" = type { ptr }
%"class.std::__cxx11::basic_string" = type { %"struct.std::__cxx11::basic_string<char>::_Alloc_hider", i64, %union.anon }
%"struct.std::__cxx11::basic_string<char>::_Alloc_hider" = type { ptr }
%union.anon = type { i64, [8 x i8] }
%"struct.gmx::SelectionLocation" = type { i32, i32 }
%"class.gmx::NotImplementedError" = type { %"class.gmx::APIError" }
%"class.gmx::APIError" = type { %"class.gmx::GromacsException" }
%"class.gmx::GromacsException" = type { %"class.std::exception", %"class.std::shared_ptr.46" }
%"class.std::exception" = type { ptr }
%"class.std::shared_ptr.46" = type { %"class.std::__shared_ptr.47" }
%"class.std::__shared_ptr.47" = type { ptr, %"class.std::__shared_count" }
%"class.gmx::ExceptionInitializer" = type { %"class.std::__cxx11::basic_string", %"class.std::vector.49" }
%"class.std::vector.49" = type { %"struct.std::_Vector_base.50" }
%"struct.std::_Vector_base.50" = type { %"struct.std::_Vector_base<std::__exception_ptr::exception_ptr, std::allocator<std::__exception_ptr::exception_ptr>>::_Vector_impl" }
%"struct.std::_Vector_base<std::__exception_ptr::exception_ptr, std::allocator<std::__exception_ptr::exception_ptr>>::_Vector_impl" = type { %"struct.std::_Vector_base<std::__exception_ptr::exception_ptr, std::allocator<std::__exception_ptr::exception_ptr>>::_Vector_impl_data" }
%"struct.std::_Vector_base<std::__exception_ptr::exception_ptr, std::allocator<std::__exception_ptr::exception_ptr>>::_Vector_impl_data" = type { ptr, ptr, ptr }
%"class.gmx::ExceptionInfo" = type { %"class.gmx::internal::IExceptionInfo", %"struct.gmx::ThrowLocation" }
%"class.gmx::internal::IExceptionInfo" = type { ptr }
%"struct.gmx::ThrowLocation" = type <{ ptr, ptr, i32, [4 x i8] }>
%struct.gmx_sel_evaluate_t = type { ptr, ptr, ptr, ptr, ptr }
%"struct.gmx::SelMethodEvalContext" = type { ptr, ptr, ptr }
%struct.gmx_ana_selmethod_t = type { ptr, i32, i32, i32, ptr, ptr, ptr, ptr, ptr, ptr, ptr, ptr, ptr, %struct.gmx_ana_selmethod_help_t }
%struct.gmx_ana_selmethod_help_t = type { ptr, ptr, i32, ptr }

@.str.16 = private unnamed_addr constant [128 x i8] c"generated/home/dtcxzyw/WorkSpace/Projects/compilers/llvm-opt-benchmark/bench/gromacs/gromacs/src/gromacs/selection/evaluate.cpp\00", align 1
@_ZTIN3gmx19NotImplementedErrorE = external constant ptr
@_ZTVN3gmx8internal14IExceptionInfoE = external unnamed_addr constant { [4 x ptr] }, align 8
@_ZTVN3gmx19NotImplementedErrorE = external unnamed_addr constant { [6 x ptr] }, align 8
@_ZTVN3gmx8APIErrorE = external unnamed_addr constant { [6 x ptr] }, align 8
@.str.30 = private unnamed_addr constant [46 x i8] c"Non-position valued modifiers not implemented\00", align 1

; Function Attrs: mustprogress nounwind uwtable
define linkonce_odr noundef ptr @_ZNKSt12__shared_ptrIN3gmx20SelectionTreeElementELN9__gnu_cxx12_Lock_policyE2EE3getEv(ptr noundef nonnull align 8 dereferenceable(16) %0) #0 comdat align 2 {
  %2 = alloca ptr, align 8
  store ptr %0, ptr %2, align 8
  %3 = load ptr, ptr %2, align 8
  %4 = getelementptr inbounds %"class.std::__shared_ptr", ptr %3, i32 0, i32 0
  %5 = load ptr, ptr %4, align 8
  ret ptr %5
}

; Function Attrs: mustprogress nounwind uwtable
define linkonce_odr void @_ZN3gmx8internal14IExceptionInfoC2Ev(ptr noundef nonnull align 8 dereferenceable(8) %0) unnamed_addr #0 comdat align 2 {
  %2 = alloca ptr, align 8
  store ptr %0, ptr %2, align 8
  %3 = load ptr, ptr %2, align 8
  store ptr getelementptr inbounds inrange(-16, 16) ({ [4 x ptr] }, ptr @_ZTVN3gmx8internal14IExceptionInfoE, i32 0, i32 0, i32 2), ptr %3, align 8
  ret void
}

; Function Attrs: mustprogress uwtable
define linkonce_odr void @_ZN3gmx8APIErrorC2ERKNS_20ExceptionInitializerE(ptr noundef nonnull align 8 dereferenceable(24) %0, ptr noundef nonnull align 8 dereferenceable(56) %1) unnamed_addr #2 comdat align 2 {
  %3 = alloca ptr, align 8
  %4 = alloca ptr, align 8
  store ptr %0, ptr %3, align 8
  store ptr %1, ptr %4, align 8
  %5 = load ptr, ptr %3, align 8
  %6 = load ptr, ptr %4, align 8
  call void @_ZN3gmx16GromacsExceptionC2ERKNS_20ExceptionInitializerE(ptr noundef nonnull align 8 dereferenceable(24) %5, ptr noundef nonnull align 8 dereferenceable(56) %6)
  store ptr getelementptr inbounds inrange(-16, 32) ({ [6 x ptr] }, ptr @_ZTVN3gmx8APIErrorE, i32 0, i32 0, i32 2), ptr %5, align 8
  ret void
}

; Function Attrs: mustprogress nounwind uwtable
define linkonce_odr noundef ptr @_ZNKSt19__shared_ptr_accessIN3gmx20SelectionTreeElementELN9__gnu_cxx12_Lock_policyE2ELb0ELb0EE6_M_getEv(ptr noundef nonnull align 1 dereferenceable(1) %0) #0 comdat align 2 {
  %2 = alloca ptr, align 8
  store ptr %0, ptr %2, align 8
  %3 = load ptr, ptr %2, align 8
  %4 = call noundef ptr @_ZNKSt12__shared_ptrIN3gmx20SelectionTreeElementELN9__gnu_cxx12_Lock_policyE2EE3getEv(ptr noundef nonnull align 8 dereferenceable(16) %3) #9
  ret ptr %4
}

; Function Attrs: mustprogress nounwind uwtable
define linkonce_odr void @_ZN3gmx13ExceptionInfoINS_22ExceptionInfoLocation_ENS_13ThrowLocationEED2Ev(ptr noundef nonnull align 8 dereferenceable(32) %0) unnamed_addr #0 comdat align 2 {
  %2 = alloca ptr, align 8
  store ptr %0, ptr %2, align 8
  %3 = load ptr, ptr %2, align 8
  call void @_ZN3gmx8internal14IExceptionInfoD2Ev(ptr noundef nonnull align 8 dereferenceable(8) %3) #9
  ret void
}

; Function Attrs: mustprogress nounwind uwtable
define linkonce_odr void @_ZN3gmx13ExceptionInfoINS_22ExceptionInfoLocation_ENS_13ThrowLocationEEC2ERKS2_(ptr noundef nonnull align 8 dereferenceable(32) %0, ptr noundef nonnull align 8 dereferenceable(20) %1) unnamed_addr #0 comdat align 2 {
  %3 = alloca ptr, align 8
  %4 = alloca ptr, align 8
  store ptr %0, ptr %3, align 8
  store ptr %1, ptr %4, align 8
  %5 = load ptr, ptr %3, align 8
  call void @_ZN3gmx8internal14IExceptionInfoC2Ev(ptr noundef nonnull align 8 dereferenceable(8) %5) #9
  store ptr getelementptr inbounds inrange(-16, 16) ({ [4 x ptr] }, ptr @_ZTVN3gmx13ExceptionInfoINS_22ExceptionInfoLocation_ENS_13ThrowLocationEEE, i32 0, i32 0, i32 2), ptr %5, align 8
  %6 = getelementptr inbounds %"class.gmx::ExceptionInfo", ptr %5, i32 0, i32 1
  %7 = load ptr, ptr %4, align 8
  call void @llvm.memcpy.p0.p0.i64(ptr align 8 %6, ptr align 8 %7, i64 24, i1 false)
  ret void
}

; Function Attrs: mustprogress nounwind uwtable
define linkonce_odr void @_ZN3gmx13ThrowLocationC2EPKcS2_i(ptr noundef nonnull align 8 dereferenceable(20) %0, ptr noundef %1, ptr noundef %2, i32 noundef %3) unnamed_addr #0 comdat align 2 {
  %5 = alloca ptr, align 8
  %6 = alloca ptr, align 8
  %7 = alloca ptr, align 8
  %8 = alloca i32, align 4
  store ptr %0, ptr %5, align 8
  store ptr %1, ptr %6, align 8
  store ptr %2, ptr %7, align 8
  store i32 %3, ptr %8, align 4
  %9 = load ptr, ptr %5, align 8
  %10 = getelementptr inbounds %"struct.gmx::ThrowLocation", ptr %9, i32 0, i32 0
  %11 = load ptr, ptr %6, align 8
  store ptr %11, ptr %10, align 8
  %12 = getelementptr inbounds %"struct.gmx::ThrowLocation", ptr %9, i32 0, i32 1
  %13 = load ptr, ptr %7, align 8
  store ptr %13, ptr %12, align 8
  %14 = getelementptr inbounds %"struct.gmx::ThrowLocation", ptr %9, i32 0, i32 2
  %15 = load i32, ptr %8, align 4
  store i32 %15, ptr %14, align 8
  ret void
}

; Function Attrs: mustprogress uwtable
define linkonce_odr void @_ZN3gmx19NotImplementedErrorC2ERKNS_20ExceptionInitializerE(ptr noundef nonnull align 8 dereferenceable(24) %0, ptr noundef nonnull align 8 dereferenceable(56) %1) unnamed_addr #2 comdat align 2 {
  %3 = alloca ptr, align 8
  %4 = alloca ptr, align 8
  store ptr %0, ptr %3, align 8
  store ptr %1, ptr %4, align 8
  %5 = load ptr, ptr %3, align 8
  %6 = load ptr, ptr %4, align 8
  call void @_ZN3gmx8APIErrorC2ERKNS_20ExceptionInitializerE(ptr noundef nonnull align 8 dereferenceable(24) %5, ptr noundef nonnull align 8 dereferenceable(56) %6)
  store ptr getelementptr inbounds inrange(-16, 32) ({ [6 x ptr] }, ptr @_ZTVN3gmx19NotImplementedErrorE, i32 0, i32 0, i32 2), ptr %5, align 8
  ret void
}

; Function Attrs: mustprogress nounwind uwtable
define linkonce_odr noundef zeroext i1 @_ZNKSt12__shared_ptrIN3gmx20SelectionTreeElementELN9__gnu_cxx12_Lock_policyE2EEcvbEv(ptr noundef nonnull align 8 dereferenceable(16) %0) #0 comdat align 2 {
  %2 = alloca ptr, align 8
  store ptr %0, ptr %2, align 8
  %3 = load ptr, ptr %2, align 8
  %4 = getelementptr inbounds %"class.std::__shared_ptr", ptr %3, i32 0, i32 0
  %5 = load ptr, ptr %4, align 8
  %6 = icmp ne ptr %5, null
  ret i1 %6
}

; Function Attrs: mustprogress nounwind uwtable
define linkonce_odr noundef ptr @_ZNKSt19__shared_ptr_accessIN3gmx20SelectionTreeElementELN9__gnu_cxx12_Lock_policyE2ELb0ELb0EEptEv(ptr noundef nonnull align 1 dereferenceable(1) %0) #0 comdat align 2 {
  %2 = alloca ptr, align 8
  store ptr %0, ptr %2, align 8
  %3 = load ptr, ptr %2, align 8
  %4 = call noundef ptr @_ZNKSt19__shared_ptr_accessIN3gmx20SelectionTreeElementELN9__gnu_cxx12_Lock_policyE2ELb0ELb0EE6_M_getEv(ptr noundef nonnull align 1 dereferenceable(1) %3) #9
  ret ptr %4
}

; Function Attrs: mustprogress nounwind uwtable
define linkonce_odr void @_ZN3gmx20SelMethodEvalContextC2EPK10gmx_mtop_tP10t_trxframePK5t_pbc(ptr noundef nonnull align 8 dereferenceable(24) %0, ptr noundef %1, ptr noundef %2, ptr noundef %3) unnamed_addr #0 comdat align 2 {
  %5 = alloca ptr, align 8
  %6 = alloca ptr, align 8
  %7 = alloca ptr, align 8
  %8 = alloca ptr, align 8
  store ptr %0, ptr %5, align 8
  store ptr %1, ptr %6, align 8
  store ptr %2, ptr %7, align 8
  store ptr %3, ptr %8, align 8
  %9 = load ptr, ptr %5, align 8
  %10 = getelementptr inbounds %"struct.gmx::SelMethodEvalContext", ptr %9, i32 0, i32 0
  %11 = load ptr, ptr %6, align 8
  store ptr %11, ptr %10, align 8
  %12 = getelementptr inbounds %"struct.gmx::SelMethodEvalContext", ptr %9, i32 0, i32 1
  %13 = load ptr, ptr %7, align 8
  store ptr %13, ptr %12, align 8
  %14 = getelementptr inbounds %"struct.gmx::SelMethodEvalContext", ptr %9, i32 0, i32 2
  %15 = load ptr, ptr %8, align 8
  store ptr %15, ptr %14, align 8
  ret void
}

; Function Attrs: mustprogress uwtable
define void @_Z26_gmx_sel_evaluate_modifierP18gmx_sel_evaluate_tRKSt10shared_ptrIN3gmx20SelectionTreeElementEEP15gmx_ana_index_t(ptr noundef %0, ptr noundef nonnull align 8 dereferenceable(16) %1, ptr noundef %2) #2 personality ptr @__gxx_personality_v0 {
  %4 = alloca ptr, align 8
  %5 = alloca ptr, align 8
  %6 = alloca ptr, align 8
  %7 = alloca %"struct.gmx::SelMethodEvalContext", align 8
  %8 = alloca %"class.gmx::NotImplementedError", align 8
  %9 = alloca %"class.gmx::ExceptionInitializer", align 8
  %10 = alloca ptr, align 8
  %11 = alloca i32, align 4
  %12 = alloca %"class.gmx::ExceptionInfo", align 8
  %13 = alloca %"struct.gmx::ThrowLocation", align 8
  %14 = alloca i1, align 1
  store ptr %0, ptr %4, align 8
  store ptr %1, ptr %5, align 8
  store ptr %2, ptr %6, align 8
  %15 = load ptr, ptr %4, align 8
  %16 = load ptr, ptr %5, align 8
  %17 = load ptr, ptr %6, align 8
  call void @_Z31_gmx_sel_evaluate_method_paramsP18gmx_sel_evaluate_tRKSt10shared_ptrIN3gmx20SelectionTreeElementEEP15gmx_ana_index_t(ptr noundef %15, ptr noundef nonnull align 8 dereferenceable(16) %16, ptr noundef %17)
  %18 = load ptr, ptr %4, align 8
  %19 = getelementptr inbounds %struct.gmx_sel_evaluate_t, ptr %18, i32 0, i32 2
  %20 = load ptr, ptr %19, align 8
  %21 = load ptr, ptr %4, align 8
  %22 = getelementptr inbounds %struct.gmx_sel_evaluate_t, ptr %21, i32 0, i32 3
  %23 = load ptr, ptr %22, align 8
  %24 = load ptr, ptr %4, align 8
  %25 = getelementptr inbounds %struct.gmx_sel_evaluate_t, ptr %24, i32 0, i32 4
  %26 = load ptr, ptr %25, align 8
  call void @_ZN3gmx20SelMethodEvalContextC2EPK10gmx_mtop_tP10t_trxframePK5t_pbc(ptr noundef nonnull align 8 dereferenceable(24) %7, ptr noundef %20, ptr noundef %23, ptr noundef %26)
  %27 = load ptr, ptr %5, align 8
  %28 = call noundef ptr @_ZNKSt19__shared_ptr_accessIN3gmx20SelectionTreeElementELN9__gnu_cxx12_Lock_policyE2ELb0ELb0EEptEv(ptr noundef nonnull align 1 dereferenceable(1) %27) #9
  %29 = getelementptr inbounds %"class.gmx::SelectionTreeElement", ptr %28, i32 0, i32 3
  %30 = load i32, ptr %29, align 8
  %31 = and i32 %30, 1024
  %32 = icmp ne i32 %31, 0
  br i1 %32, label %33, label %51

33:                                               ; preds = %3
  %34 = load ptr, ptr %5, align 8
  %35 = call noundef ptr @_ZNKSt19__shared_ptr_accessIN3gmx20SelectionTreeElementELN9__gnu_cxx12_Lock_policyE2ELb0ELb0EEptEv(ptr noundef nonnull align 1 dereferenceable(1) %34) #9
  %36 = getelementptr inbounds %"class.gmx::SelectionTreeElement", ptr %35, i32 0, i32 3
  %37 = load i32, ptr %36, align 8
  %38 = and i32 %37, -1025
  store i32 %38, ptr %36, align 8
  %39 = load ptr, ptr %5, align 8
  %40 = call noundef ptr @_ZNKSt19__shared_ptr_accessIN3gmx20SelectionTreeElementELN9__gnu_cxx12_Lock_policyE2ELb0ELb0EEptEv(ptr noundef nonnull align 1 dereferenceable(1) %39) #9
  %41 = getelementptr inbounds %"class.gmx::SelectionTreeElement", ptr %40, i32 0, i32 4
  %42 = getelementptr inbounds %struct.anon, ptr %41, i32 0, i32 0
  %43 = load ptr, ptr %42, align 8
  %44 = getelementptr inbounds %struct.gmx_ana_selmethod_t, ptr %43, i32 0, i32 10
  %45 = load ptr, ptr %44, align 8
  %46 = load ptr, ptr %5, align 8
  %47 = call noundef ptr @_ZNKSt19__shared_ptr_accessIN3gmx20SelectionTreeElementELN9__gnu_cxx12_Lock_policyE2ELb0ELb0EEptEv(ptr noundef nonnull align 1 dereferenceable(1) %46) #9
  %48 = getelementptr inbounds %"class.gmx::SelectionTreeElement", ptr %47, i32 0, i32 4
  %49 = getelementptr inbounds %struct.anon, ptr %48, i32 0, i32 1
  %50 = load ptr, ptr %49, align 8
  call void %45(ptr noundef nonnull align 8 dereferenceable(24) %7, ptr noundef %50)
  br label %51

51:                                               ; preds = %33, %3
  %52 = load ptr, ptr %5, align 8
  %53 = call noundef ptr @_ZNKSt19__shared_ptr_accessIN3gmx20SelectionTreeElementELN9__gnu_cxx12_Lock_policyE2ELb0ELb0EEptEv(ptr noundef nonnull align 1 dereferenceable(1) %52) #9
  %54 = getelementptr inbounds %"class.gmx::SelectionTreeElement", ptr %53, i32 0, i32 7
  %55 = call noundef zeroext i1 @_ZNKSt12__shared_ptrIN3gmx20SelectionTreeElementELN9__gnu_cxx12_Lock_policyE2EEcvbEv(ptr noundef nonnull align 8 dereferenceable(16) %54) #9
  br i1 %55, label %56, label %94

56:                                               ; preds = %51
  %57 = load ptr, ptr %5, align 8
  %58 = call noundef ptr @_ZNKSt19__shared_ptr_accessIN3gmx20SelectionTreeElementELN9__gnu_cxx12_Lock_policyE2ELb0ELb0EEptEv(ptr noundef nonnull align 1 dereferenceable(1) %57) #9
  %59 = getelementptr inbounds %"class.gmx::SelectionTreeElement", ptr %58, i32 0, i32 7
  %60 = call noundef ptr @_ZNKSt19__shared_ptr_accessIN3gmx20SelectionTreeElementELN9__gnu_cxx12_Lock_policyE2ELb0ELb0EEptEv(ptr noundef nonnull align 1 dereferenceable(1) %59) #9
  %61 = getelementptr inbounds %"class.gmx::SelectionTreeElement", ptr %60, i32 0, i32 1
  %62 = getelementptr inbounds %struct.gmx_ana_selvalue_t, ptr %61, i32 0, i32 0
  %63 = load i32, ptr %62, align 8
  %64 = icmp ne i32 %63, 4
  br i1 %64, label %65, label %94

65:                                               ; preds = %56
  store i1 true, ptr %14, align 1
  %66 = call ptr @__cxa_allocate_exception(i64 24) #9
  invoke void @_ZN3gmx20ExceptionInitializerC2EPKc(ptr noundef nonnull align 8 dereferenceable(56) %9, ptr noundef @.str.30)
          to label %67 unwind label %72

67:                                               ; preds = %65
  invoke void @_ZN3gmx19NotImplementedErrorC2ERKNS_20ExceptionInitializerE(ptr noundef nonnull align 8 dereferenceable(24) %8, ptr noundef nonnull align 8 dereferenceable(56) %9)
          to label %68 unwind label %76

68:                                               ; preds = %67
  invoke void @_ZN3gmx13ThrowLocationC2EPKcS2_i(ptr noundef nonnull align 8 dereferenceable(20) %13, ptr noundef @__PRETTY_FUNCTION__._Z26_gmx_sel_evaluate_modifierP18gmx_sel_evaluate_tRKSt10shared_ptrIN3gmx20SelectionTreeElementEEP15gmx_ana_index_t, ptr noundef @.str.16, i32 noundef 992)
          to label %69 unwind label %80

69:                                               ; preds = %68
  invoke void @_ZN3gmx13ExceptionInfoINS_22ExceptionInfoLocation_ENS_13ThrowLocationEEC2ERKS2_(ptr noundef nonnull align 8 dereferenceable(32) %12, ptr noundef nonnull align 8 dereferenceable(20) %13)
          to label %70 unwind label %80

70:                                               ; preds = %69
  invoke void @_ZN3gmxlsINS_19NotImplementedErrorENS_22ExceptionInfoLocation_ENS_13ThrowLocationEEENSt9enable_ifIXsr3std10is_base_ofINS_16GromacsExceptionET_EE5valueES6_E4typeES6_RKNS_13ExceptionInfoIT0_T1_EE(ptr dead_on_unwind writable sret(%"class.gmx::NotImplementedError") align 8 %66, ptr noundef %8, ptr noundef nonnull align 8 dereferenceable(32) %12)
          to label %71 unwind label %84

71:                                               ; preds = %70
  store i1 false, ptr %14, align 1
  invoke void @__cxa_throw(ptr %66, ptr @_ZTIN3gmx19NotImplementedErrorE, ptr @_ZN3gmx19NotImplementedErrorD2Ev) #10
          to label %115 unwind label %84

72:                                               ; preds = %65
  %73 = landingpad { ptr, i32 }
          cleanup
  %74 = extractvalue { ptr, i32 } %73, 0
  store ptr %74, ptr %10, align 8
  %75 = extractvalue { ptr, i32 } %73, 1
  store i32 %75, ptr %11, align 4
  br label %90

76:                                               ; preds = %67
  %77 = landingpad { ptr, i32 }
          cleanup
  %78 = extractvalue { ptr, i32 } %77, 0
  store ptr %78, ptr %10, align 8
  %79 = extractvalue { ptr, i32 } %77, 1
  store i32 %79, ptr %11, align 4
  br label %89

80:                                               ; preds = %69, %68
  %81 = landingpad { ptr, i32 }
          cleanup
  %82 = extractvalue { ptr, i32 } %81, 0
  store ptr %82, ptr %10, align 8
  %83 = extractvalue { ptr, i32 } %81, 1
  store i32 %83, ptr %11, align 4
  br label %88

84:                                               ; preds = %71, %70
  %85 = landingpad { ptr, i32 }
          cleanup
  %86 = extractvalue { ptr, i32 } %85, 0
  store ptr %86, ptr %10, align 8
  %87 = extractvalue { ptr, i32 } %85, 1
  store i32 %87, ptr %11, align 4
  call void @_ZN3gmx13ExceptionInfoINS_22ExceptionInfoLocation_ENS_13ThrowLocationEED2Ev(ptr noundef nonnull align 8 dereferenceable(32) %12) #9
  br label %88

88:                                               ; preds = %84, %80
  call void @_ZN3gmx19NotImplementedErrorD2Ev(ptr noundef nonnull align 8 dereferenceable(24) %8) #9
  br label %89

89:                                               ; preds = %88, %76
  call void @_ZN3gmx20ExceptionInitializerD2Ev(ptr noundef nonnull align 8 dereferenceable(56) %9) #9
  br label %90

90:                                               ; preds = %89, %72
  %91 = load i1, ptr %14, align 1
  br i1 %91, label %92, label %93

92:                                               ; preds = %90
  call void @__cxa_free_exception(ptr %66) #9
  br label %93

93:                                               ; preds = %92, %90
  br label %110

94:                                               ; preds = %56, %51
  %95 = load ptr, ptr %5, align 8
  %96 = call noundef ptr @_ZNKSt19__shared_ptr_accessIN3gmx20SelectionTreeElementELN9__gnu_cxx12_Lock_policyE2ELb0ELb0EEptEv(ptr noundef nonnull align 1 dereferenceable(1) %95) #9
  %97 = getelementptr inbounds %"class.gmx::SelectionTreeElement", ptr %96, i32 0, i32 4
  %98 = getelementptr inbounds %struct.anon, ptr %97, i32 0, i32 0
  %99 = load ptr, ptr %98, align 8
  %100 = getelementptr inbounds %struct.gmx_ana_selmethod_t, ptr %99, i32 0, i32 12
  %101 = load ptr, ptr %100, align 8
  %102 = load ptr, ptr %5, align 8
  %103 = call noundef ptr @_ZNKSt19__shared_ptr_accessIN3gmx20SelectionTreeElementELN9__gnu_cxx12_Lock_policyE2ELb0ELb0EEptEv(ptr noundef nonnull align 1 dereferenceable(1) %102) #9
  %104 = getelementptr inbounds %"class.gmx::SelectionTreeElement", ptr %103, i32 0, i32 1
  %105 = load ptr, ptr %5, align 8
  %106 = call noundef ptr @_ZNKSt19__shared_ptr_accessIN3gmx20SelectionTreeElementELN9__gnu_cxx12_Lock_policyE2ELb0ELb0EEptEv(ptr noundef nonnull align 1 dereferenceable(1) %105) #9
  %107 = getelementptr inbounds %"class.gmx::SelectionTreeElement", ptr %106, i32 0, i32 4
  %108 = getelementptr inbounds %struct.anon, ptr %107, i32 0, i32 1
  %109 = load ptr, ptr %108, align 8
  call void %101(ptr noundef nonnull align 8 dereferenceable(24) %7, ptr noundef null, ptr noundef %104, ptr noundef %109)
  ret void

110:                                              ; preds = %93
  %111 = load ptr, ptr %10, align 8
  %112 = load i32, ptr %11, align 4
  %113 = insertvalue { ptr, i32 } poison, ptr %111, 0
  %114 = insertvalue { ptr, i32 } %113, i32 %112, 1
  resume { ptr, i32 } %114

115:                                              ; preds = %71
  unreachable
}