; Function Attrs: mustprogress uwtable
define void @_Z26_gmx_sel_evaluate_modifierP18gmx_sel_evaluate_tRKSt10shared_ptrIN3gmx20SelectionTreeElementEEP15gmx_ana_index_t(ptr noundef %0, ptr nocapture noundef nonnull readonly align 8 dereferenceable(16) %1, ptr noundef %2) #2 personality ptr @__gxx_personality_v0 {
  %4 = alloca %"struct.gmx::SelMethodEvalContext", align 16
  %5 = alloca %"class.gmx::NotImplementedError", align 8
  %6 = alloca %"class.gmx::ExceptionInitializer", align 8
  %7 = alloca %"class.gmx::ExceptionInfo", align 8
  tail call void @_Z31_gmx_sel_evaluate_method_paramsP18gmx_sel_evaluate_tRKSt10shared_ptrIN3gmx20SelectionTreeElementEEP15gmx_ana_index_t(ptr noundef %0, ptr noundef nonnull align 8 dereferenceable(16) %1, ptr noundef %2)
  %8 = getelementptr inbounds i8, ptr %0, i64 16
  %9 = getelementptr inbounds i8, ptr %0, i64 32
  %10 = load ptr, ptr %9, align 8
  %11 = load <2 x ptr>, ptr %8, align 8
  store <2 x ptr> %11, ptr %4, align 16
  %12 = getelementptr inbounds i8, ptr %4, i64 16
  store ptr %10, ptr %12, align 16
  %13 = load ptr, ptr %1, align 8
  %14 = getelementptr inbounds i8, ptr %13, i64 40
  %15 = load i32, ptr %14, align 8
  %16 = and i32 %15, 1024
  %.not = icmp eq i32 %16, 0
  br i1 %.not, label %26, label %17

17:                                               ; preds = %3
  %18 = and i32 %15, -1025
  store i32 %18, ptr %14, align 8
  %19 = load ptr, ptr %1, align 8
  %20 = getelementptr inbounds i8, ptr %19, i64 48
  %21 = load ptr, ptr %20, align 8
  %22 = getelementptr inbounds i8, ptr %21, i64 72
  %23 = load ptr, ptr %22, align 8
  %24 = getelementptr inbounds i8, ptr %19, i64 56
  %25 = load ptr, ptr %24, align 8
  call void %23(ptr noundef nonnull align 8 dereferenceable(24) %4, ptr noundef %25)
  %.pre = load ptr, ptr %1, align 8
  br label %26

26:                                               ; preds = %17, %3
  %27 = phi ptr [ %.pre, %17 ], [ %13, %3 ]
  %28 = getelementptr inbounds i8, ptr %27, i64 96
  %29 = load ptr, ptr %28, align 8
  %.not31 = icmp eq ptr %29, null
  br i1 %.not31, label %44, label %30

30:                                               ; preds = %26
  %31 = getelementptr inbounds i8, ptr %29, i64 8
  %32 = load i32, ptr %31, align 8
  %.not21 = icmp eq i32 %32, 4
  br i1 %.not21, label %44, label %33

33:                                               ; preds = %30
  %34 = call ptr @__cxa_allocate_exception(i64 24) #18
  invoke void @_ZN3gmx20ExceptionInitializerC2EPKc(ptr noundef nonnull align 8 dereferenceable(56) %6, ptr noundef nonnull @.str.30)
          to label %35 unwind label %.thread

35:                                               ; preds = %33
  invoke void @_ZN3gmx16GromacsExceptionC2ERKNS_20ExceptionInitializerE(ptr noundef nonnull align 8 dereferenceable(24) %5, ptr noundef nonnull align 8 dereferenceable(56) %6)
          to label %36 unwind label %.thread28

36:                                               ; preds = %35
  store ptr getelementptr inbounds inrange(-16, 32) ({ [6 x ptr] }, ptr @_ZTVN3gmx19NotImplementedErrorE, i64 0, i32 0, i64 2), ptr %5, align 8
  store ptr getelementptr inbounds inrange(-16, 16) ({ [4 x ptr] }, ptr @_ZTVN3gmx13ExceptionInfoINS_22ExceptionInfoLocation_ENS_13ThrowLocationEEE, i64 0, i32 0, i64 2), ptr %7, align 8
  %37 = getelementptr inbounds i8, ptr %7, i64 8
  store ptr @__PRETTY_FUNCTION__._Z26_gmx_sel_evaluate_modifierP18gmx_sel_evaluate_tRKSt10shared_ptrIN3gmx20SelectionTreeElementEEP15gmx_ana_index_t, ptr %37, align 8
  %.sroa.2.0..sroa_idx = getelementptr inbounds i8, ptr %7, i64 16
  store ptr @.str.16, ptr %.sroa.2.0..sroa_idx, align 8
  %.sroa.3.0..sroa_idx = getelementptr inbounds i8, ptr %7, i64 24
  store i32 992, ptr %.sroa.3.0..sroa_idx, align 8
  invoke void @_ZN3gmxlsINS_19NotImplementedErrorENS_22ExceptionInfoLocation_ENS_13ThrowLocationEEENSt9enable_ifIXsr3std10is_base_ofINS_16GromacsExceptionET_EE5valueES6_E4typeES6_RKNS_13ExceptionInfoIT0_T1_EE(ptr dead_on_unwind writable sret(%"class.gmx::NotImplementedError") align 8 %34, ptr noundef nonnull %5, ptr noundef nonnull align 8 dereferenceable(32) %7)
          to label %38 unwind label %41

38:                                               ; preds = %36
  invoke void @__cxa_throw(ptr %34, ptr nonnull @_ZTIN3gmx19NotImplementedErrorE, ptr nonnull @_ZN3gmx19NotImplementedErrorD2Ev) #20
          to label %53 unwind label %41

.thread:                                          ; preds = %33
  %39 = landingpad { ptr, i32 }
          cleanup
  br label %43

.thread28:                                        ; preds = %35
  %40 = landingpad { ptr, i32 }
          cleanup
  call void @_ZN3gmx20ExceptionInitializerD2Ev(ptr noundef nonnull align 8 dereferenceable(56) %6) #18
  br label %43

41:                                               ; preds = %36, %38
  %.0 = phi i1 [ false, %38 ], [ true, %36 ]
  %42 = landingpad { ptr, i32 }
          cleanup
  call void @_ZN3gmx8internal14IExceptionInfoD2Ev(ptr noundef nonnull align 8 dereferenceable(8) %7) #18
  call void @_ZN3gmx19NotImplementedErrorD2Ev(ptr noundef nonnull align 8 dereferenceable(24) %5) #18
  call void @_ZN3gmx20ExceptionInitializerD2Ev(ptr noundef nonnull align 8 dereferenceable(56) %6) #18
  br i1 %.0, label %43, label %52

43:                                               ; preds = %.thread28, %.thread, %41
  %.pn.pn27 = phi { ptr, i32 } [ %39, %.thread ], [ %42, %41 ], [ %40, %.thread28 ]
  call void @__cxa_free_exception(ptr %34) #18
  br label %52

44:                                               ; preds = %30, %26
  %45 = getelementptr inbounds i8, ptr %27, i64 48
  %46 = load ptr, ptr %45, align 8
  %47 = getelementptr inbounds i8, ptr %46, i64 88
  %48 = load ptr, ptr %47, align 8
  %49 = getelementptr inbounds i8, ptr %27, i64 8
  %50 = getelementptr inbounds i8, ptr %27, i64 56
  %51 = load ptr, ptr %50, align 8
  call void %48(ptr noundef nonnull align 8 dereferenceable(24) %4, ptr noundef null, ptr noundef nonnull %49, ptr noundef %51)
  ret void

52:                                               ; preds = %41, %43
  %.pn.pn26 = phi { ptr, i32 } [ %42, %41 ], [ %.pn.pn27, %43 ]
  resume { ptr, i32 } %.pn.pn26

53:                                               ; preds = %38
  unreachable
}